; Function Attrs: nounwind uwtable
define internal ptr @cfunction_vectorcall_FASTCALL_KEYWORDS_METHOD(ptr noundef readonly captures(none) %0, ptr noundef %1, i64 noundef %2, ptr noundef %3) #0 {
  %5 = tail call align 8 ptr @llvm.threadlocal.address.p0(ptr align 8 @_Py_tss_tstate)
  %6 = load ptr, ptr %5, align 8, !tbaa !26
  %7 = getelementptr inbounds nuw i8, ptr %0, i64 16
  %8 = load ptr, ptr %7, align 8, !tbaa !22
  %9 = getelementptr inbounds nuw i8, ptr %8, i64 16
  %10 = load i32, ptr %9, align 8, !tbaa !4
  %11 = and i32 %10, 512
  %.not.i = icmp eq i32 %11, 0
  br i1 %.not.i, label %PyCFunction_GET_CLASS.exit, label %12

12:                                               ; preds = %4
  %13 = getelementptr inbounds nuw i8, ptr %0, i64 56
  %14 = load ptr, ptr %13, align 8, !tbaa !15
  br label %PyCFunction_GET_CLASS.exit

PyCFunction_GET_CLASS.exit:                       ; preds = %4, %12
  %.0.i = phi ptr [ %14, %12 ], [ null, %4 ]
  %15 = and i64 %2, 9223372036854775807
  %16 = getelementptr inbounds nuw i8, ptr %6, i64 52
  %17 = load i32, ptr %16, align 4, !tbaa !111
  %18 = add i32 %17, -1
  store i32 %18, ptr %16, align 4, !tbaa !111
  %.not.i.i = icmp sgt i32 %17, -1
  br i1 %.not.i.i, label %cfunction_enter_call.exit, label %_Py_EnterRecursiveCallTstate.exit.i

_Py_EnterRecursiveCallTstate.exit.i:              ; preds = %PyCFunction_GET_CLASS.exit
  %19 = tail call i32 @_Py_CheckRecursiveCall(ptr noundef nonnull %6, ptr noundef nonnull @.str.23) #5
  %.not4.i = icmp eq i32 %19, 0
  br i1 %.not4.i, label %_Py_EnterRecursiveCallTstate.exit.i.cfunction_enter_call.exit_crit_edge, label %cfunction_enter_call.exit.thread

_Py_EnterRecursiveCallTstate.exit.i.cfunction_enter_call.exit_crit_edge: ; preds = %_Py_EnterRecursiveCallTstate.exit.i
  %.val.i.pre = load ptr, ptr %7, align 8, !tbaa !22
  br label %cfunction_enter_call.exit

cfunction_enter_call.exit:                        ; preds = %_Py_EnterRecursiveCallTstate.exit.i.cfunction_enter_call.exit_crit_edge, %PyCFunction_GET_CLASS.exit
  %20 = phi ptr [ %.val.i.pre, %_Py_EnterRecursiveCallTstate.exit.i.cfunction_enter_call.exit_crit_edge ], [ %8, %PyCFunction_GET_CLASS.exit ]
  %21 = getelementptr i8, ptr %20, i64 8
  %.val.val.i = load ptr, ptr %21, align 8, !tbaa !112
  %22 = icmp eq ptr %.val.val.i, null
  br i1 %22, label %cfunction_enter_call.exit.thread, label %23

23:                                               ; preds = %cfunction_enter_call.exit
  %24 = getelementptr inbounds nuw i8, ptr %20, i64 16
  %25 = load i32, ptr %24, align 8, !tbaa !4
  %26 = and i32 %25, 32
  %.not.i15 = icmp eq i32 %26, 0
  br i1 %.not.i15, label %27, label %PyCFunction_GET_SELF.exit

27:                                               ; preds = %23
  %28 = getelementptr inbounds nuw i8, ptr %0, i64 24
  %29 = load ptr, ptr %28, align 8, !tbaa !23
  br label %PyCFunction_GET_SELF.exit

PyCFunction_GET_SELF.exit:                        ; preds = %23, %27
  %.0.i16 = phi ptr [ %29, %27 ], [ null, %23 ]
  %30 = tail call ptr %.val.val.i(ptr noundef %.0.i16, ptr noundef %.0.i, ptr noundef %1, i64 noundef %15, ptr noundef %3) #5
  %31 = load i32, ptr %16, align 4, !tbaa !111
  %32 = add i32 %31, 1
  store i32 %32, ptr %16, align 4, !tbaa !111
  br label %cfunction_enter_call.exit.thread

cfunction_enter_call.exit.thread:                 ; preds = %_Py_EnterRecursiveCallTstate.exit.i, %cfunction_enter_call.exit, %PyCFunction_GET_SELF.exit
  %.0 = phi ptr [ %30, %PyCFunction_GET_SELF.exit ], [ null, %cfunction_enter_call.exit ], [ null, %_Py_EnterRecursiveCallTstate.exit.i ]
  ret ptr %.0
}